; Function Attrs: nounwind uwtable
define dso_local noundef ptr @Curl_hash_add2(ptr noundef %0, ptr noundef %1, i64 noundef %2, ptr noundef %3, ptr noundef %4) local_unnamed_addr #1 {
  %6 = load ptr, ptr %0, align 8, !tbaa !4
  %.not = icmp eq ptr %6, null
  br i1 %.not, label %7, label %..loopexit45_crit_edge

..loopexit45_crit_edge:                           ; preds = %5
  %.phi.trans.insert = getelementptr inbounds nuw i8, ptr %0, i64 32
  %.pre53 = load i64, ptr %.phi.trans.insert, align 8, !tbaa !15
  br label %.loopexit45

7:                                                ; preds = %5
  %8 = load ptr, ptr @Curl_cmalloc, align 8, !tbaa !16
  %9 = getelementptr inbounds nuw i8, ptr %0, i64 32
  %10 = load i64, ptr %9, align 8, !tbaa !15
  %11 = shl i64 %10, 5
  %12 = tail call ptr %8(i64 noundef %11) #9
  store ptr %12, ptr %0, align 8, !tbaa !4
  %.not41.not = icmp eq ptr %12, null
  br i1 %.not41.not, label %.critedge, label %.preheader

.preheader:                                       ; preds = %7
  %13 = load i64, ptr %9, align 8, !tbaa !15
  %.not51 = icmp eq i64 %13, 0
  br i1 %.not51, label %.loopexit45, label %.lr.ph

.lr.ph:                                           ; preds = %.preheader, %.lr.ph
  %.03747 = phi i64 [ %16, %.lr.ph ], [ 0, %.preheader ]
  %14 = load ptr, ptr %0, align 8, !tbaa !4
  %15 = getelementptr inbounds nuw %struct.Curl_llist, ptr %14, i64 %.03747
  tail call void @Curl_llist_init(ptr noundef %15, ptr noundef nonnull @hash_element_dtor) #9
  %16 = add nuw i64 %.03747, 1
  %17 = load i64, ptr %9, align 8, !tbaa !15
  %18 = icmp ult i64 %16, %17
  br i1 %18, label %.lr.ph, label %.loopexit45.loopexit, !llvm.loop !17

.loopexit45.loopexit:                             ; preds = %.lr.ph
  %.pre = load ptr, ptr %0, align 8, !tbaa !4
  br label %.loopexit45

.loopexit45:                                      ; preds = %..loopexit45_crit_edge, %.loopexit45.loopexit, %.preheader
  %19 = phi i64 [ %17, %.loopexit45.loopexit ], [ 0, %.preheader ], [ %.pre53, %..loopexit45_crit_edge ]
  %20 = phi ptr [ %.pre, %.loopexit45.loopexit ], [ %12, %.preheader ], [ %6, %..loopexit45_crit_edge ]
  %21 = getelementptr inbounds nuw i8, ptr %0, i64 8
  %22 = load ptr, ptr %21, align 8, !tbaa !11
  %23 = tail call i64 %22(ptr noundef %1, i64 noundef %2, i64 noundef %19) #9
  %24 = getelementptr inbounds nuw %struct.Curl_llist, ptr %20, i64 %23
  %25 = tail call ptr @Curl_llist_head(ptr noundef %24) #9
  %.not4248 = icmp eq ptr %25, null
  br i1 %.not4248, label %.loopexit, label %.lr.ph50

.lr.ph50:                                         ; preds = %.loopexit45
  %26 = getelementptr inbounds nuw i8, ptr %0, i64 16
  br label %27

27:                                               ; preds = %.lr.ph50, %38
  %.03949 = phi ptr [ %25, %.lr.ph50 ], [ %39, %38 ]
  %28 = tail call ptr @Curl_node_elem(ptr noundef nonnull %.03949) #9
  %29 = load ptr, ptr %26, align 8, !tbaa !12
  %30 = getelementptr inbounds nuw i8, ptr %28, i64 56
  %31 = getelementptr inbounds nuw i8, ptr %28, i64 48
  %32 = load i64, ptr %31, align 8, !tbaa !19
  %33 = tail call i64 %29(ptr noundef nonnull %30, i64 noundef %32, ptr noundef %1, i64 noundef %2) #9
  %.not43 = icmp eq i64 %33, 0
  br i1 %.not43, label %38, label %34

34:                                               ; preds = %27
  tail call void @Curl_node_uremove(ptr noundef nonnull %.03949, ptr noundef nonnull %0) #9
  %35 = getelementptr inbounds nuw i8, ptr %0, i64 40
  %36 = load i64, ptr %35, align 8, !tbaa !14
  %37 = add i64 %36, -1
  store i64 %37, ptr %35, align 8, !tbaa !14
  br label %.loopexit

38:                                               ; preds = %27
  %39 = tail call ptr @Curl_node_next(ptr noundef nonnull %.03949) #9
  %.not42 = icmp eq ptr %39, null
  br i1 %.not42, label %.loopexit, label %27, !llvm.loop !23

.loopexit:                                        ; preds = %38, %.loopexit45, %34
  %40 = load ptr, ptr @Curl_cmalloc, align 8, !tbaa !16
  %41 = add i64 %2, 64
  %42 = tail call ptr %40(i64 noundef %41) #9
  %.not.i = icmp eq ptr %42, null
  br i1 %.not.i, label %.critedge, label %43

43:                                               ; preds = %.loopexit
  %44 = getelementptr inbounds nuw i8, ptr %42, i64 56
  tail call void @llvm.memcpy.p0.p0.i64(ptr nonnull align 8 %44, ptr readonly align 1 %1, i64 %2, i1 false)
  %45 = getelementptr inbounds nuw i8, ptr %42, i64 48
  store i64 %2, ptr %45, align 8, !tbaa !19
  %46 = getelementptr inbounds nuw i8, ptr %42, i64 32
  store ptr %3, ptr %46, align 8, !tbaa !24
  %47 = getelementptr inbounds nuw i8, ptr %42, i64 40
  store ptr %4, ptr %47, align 8, !tbaa !25
  tail call void @Curl_llist_append(ptr noundef %24, ptr noundef nonnull %42, ptr noundef nonnull %42) #9
  %48 = getelementptr inbounds nuw i8, ptr %0, i64 40
  %49 = load i64, ptr %48, align 8, !tbaa !14
  %50 = add i64 %49, 1
  store i64 %50, ptr %48, align 8, !tbaa !14
  br label %.critedge

.critedge:                                        ; preds = %.loopexit, %7, %43
  %.1 = phi ptr [ %3, %43 ], [ null, %7 ], [ null, %.loopexit ]
  ret ptr %.1
}